; Function Attrs: nounwind uwtable
define ptr @l_System_Uri_UriEscape_uriEscapeAsciiChar_uInt8ToHex___boxed(ptr noundef %0) local_unnamed_addr #0 {
  %2 = ptrtoint ptr %0 to i64
  %3 = and i64 %2, 1
  %.not = icmp eq i64 %3, 0
  br i1 %.not, label %4, label %lean_dec.exit

4:                                                ; preds = %1
  %5 = load i32, ptr %0, align 4, !tbaa !4
  %6 = icmp sgt i32 %5, 1
  br i1 %6, label %7, label %9, !prof !11

7:                                                ; preds = %4
  %8 = add nsw i32 %5, -1
  store i32 %8, ptr %0, align 4, !tbaa !4
  br label %lean_dec.exit

9:                                                ; preds = %4
  %.not.i = icmp eq i32 %5, 0
  br i1 %.not.i, label %lean_dec.exit, label %10

10:                                               ; preds = %9
  tail call void @lean_dec_ref_cold(ptr noundef nonnull %0) #3
  br label %lean_dec.exit

lean_dec.exit:                                    ; preds = %10, %9, %7, %1
  %11 = lshr i64 %2, 4
  %12 = and i64 %11, 30
  %13 = or disjoint i64 %12, 1
  %14 = inttoptr i64 %13 to ptr
  %15 = tail call ptr @l_hexDigitRepr(ptr noundef nonnull %14) #3
  %16 = and i64 %2, 30
  %17 = or disjoint i64 %16, 1
  %18 = inttoptr i64 %17 to ptr
  %19 = tail call ptr @l_hexDigitRepr(ptr noundef nonnull %18) #3
  %20 = tail call ptr @lean_string_append(ptr noundef %15, ptr noundef %19) #3
  %21 = ptrtoint ptr %19 to i64
  %22 = and i64 %21, 1
  %.not.i3 = icmp eq i64 %22, 0
  br i1 %.not.i3, label %23, label %l_System_Uri_UriEscape_uriEscapeAsciiChar_uInt8ToHex.exit

23:                                               ; preds = %lean_dec.exit
  %24 = load i32, ptr %19, align 4, !tbaa !4
  %25 = icmp sgt i32 %24, 1
  br i1 %25, label %26, label %28, !prof !11

26:                                               ; preds = %23
  %27 = add nsw i32 %24, -1
  store i32 %27, ptr %19, align 4, !tbaa !4
  br label %l_System_Uri_UriEscape_uriEscapeAsciiChar_uInt8ToHex.exit

28:                                               ; preds = %23
  %.not.i19.i = icmp eq i32 %24, 0
  br i1 %.not.i19.i, label %l_System_Uri_UriEscape_uriEscapeAsciiChar_uInt8ToHex.exit, label %29

29:                                               ; preds = %28
  tail call void @lean_dec_ref_cold(ptr noundef nonnull %19) #3
  br label %l_System_Uri_UriEscape_uriEscapeAsciiChar_uInt8ToHex.exit

l_System_Uri_UriEscape_uriEscapeAsciiChar_uInt8ToHex.exit: ; preds = %lean_dec.exit, %26, %28, %29
  %30 = tail call ptr @l_String_mapAux___at_String_toUpper___spec__1(ptr noundef nonnull inttoptr (i64 1 to ptr), ptr noundef %20) #3
  ret ptr %30
}